---
triple:          'arm64-apple-darwin'
binary-path:     '/Users/ilanizankovskij/Desktop/vs_code /cpp_projects/main'
relocations:
  - { offsetInCU: 0x55A0, offset: 0x55A0, size: 0x8, addend: 0x0, symName: __ZNSt3__124__put_character_sequenceB8ue170006IcNS_11char_traitsIcEEEERNS_13basic_ostreamIT_T0_EES7_PKS4_m, symObjAddr: 0x49D0, symBinAddr: 0x100007008, symSize: 0x1EC }
  - { offsetInCU: 0x6E63, offset: 0x6E63, size: 0x8, addend: 0x0, symName: __ZNSt3__1eqB8ue170006IcNS_11char_traitsIcEENS_9allocatorIcEEEEbRKNS_12basic_stringIT_T0_T1_EEPKS6_, symObjAddr: 0x8C4, symBinAddr: 0x100002EFC, symSize: 0xAC }
  - { offsetInCU: 0x6ECA, offset: 0x6ECA, size: 0x8, addend: 0x0, symName: __ZNSt3__1ltB8ue170006IcNS_11char_traitsIcEENS_9allocatorIcEEEEbRKNS_12basic_stringIT_T0_T1_EESB_, symObjAddr: 0x970, symBinAddr: 0x100002FA8, symSize: 0x38 }
  - { offsetInCU: 0x6F22, offset: 0x6F22, size: 0x8, addend: 0x0, symName: __ZNSt3__1eqB8ue170006INS_9allocatorIcEEEEbRKNS_12basic_stringIcNS_11char_traitsIcEET_EES9_, symObjAddr: 0x9A8, symBinAddr: 0x100002FE0, symSize: 0x148 }
  - { offsetInCU: 0x6F95, offset: 0x6F95, size: 0x8, addend: 0x0, symName: __ZNSt3__1rsB8ue170006IcNS_11char_traitsIcEENS_9allocatorIcEEEERNS_13basic_istreamIT_T0_EES9_RNS_12basic_stringIS6_S7_T1_EE, symObjAddr: 0x1194, symBinAddr: 0x1000037CC, symSize: 0x31C }
  - { offsetInCU: 0x7064, offset: 0x7064, size: 0x8, addend: 0x0, symName: __ZNSt3__1neB8ue170006IP7StudentEEbRKNS_11__wrap_iterIT_EES7_, symObjAddr: 0x15AC, symBinAddr: 0x100003BE4, symSize: 0x34 }
  - { offsetInCU: 0x70A7, offset: 0x70A7, size: 0x8, addend: 0x0, symName: __ZNSt3__1lsB8ue170006INS_11char_traitsIcEEEERNS_13basic_ostreamIcT_EES6_c, symObjAddr: 0x15F8, symBinAddr: 0x100003C30, symSize: 0x34 }
  - { offsetInCU: 0x70ED, offset: 0x70ED, size: 0x8, addend: 0x0, symName: __ZNSt3__1lsB8ue170006INS_11char_traitsIcEEEERNS_13basic_ostreamIcT_EES6_PKc, symObjAddr: 0x162C, symBinAddr: 0x100003C64, symSize: 0x48 }
  - { offsetInCU: 0x7133, offset: 0x7133, size: 0x8, addend: 0x0, symName: __ZNSt3__1lsB8ue170006IcNS_11char_traitsIcEENS_9allocatorIcEEEERNS_13basic_ostreamIT_T0_EES9_RKNS_12basic_stringIS6_S7_T1_EE, symObjAddr: 0x1674, symBinAddr: 0x100003CAC, symSize: 0x4C }
  - { offsetInCU: 0x718B, offset: 0x718B, size: 0x8, addend: 0x0, symName: __ZNSt3__1eqB8ue170006IP7StudentEEbRKNS_11__wrap_iterIT_EES7_, symObjAddr: 0x16E0, symBinAddr: 0x100003D18, symSize: 0x48 }
  - { offsetInCU: 0x71CE, offset: 0x71CE, size: 0x8, addend: 0x0, symName: __ZNSt3__118__constexpr_strlenB8ue170006EPKc, symObjAddr: 0x18C4, symBinAddr: 0x100003EFC, symSize: 0x24 }
  - { offsetInCU: 0x71FA, offset: 0x71FA, size: 0x8, addend: 0x0, symName: __ZNSt3__122__make_exception_guardB8ue170006INS_6vectorI7StudentNS_9allocatorIS2_EEE16__destroy_vectorEEENS_28__exception_guard_exceptionsIT_EES8_, symObjAddr: 0x1A04, symBinAddr: 0x10000403C, symSize: 0x40 }
  - { offsetInCU: 0x722F, offset: 0x722F, size: 0x8, addend: 0x0, symName: __ZNSt3__119__allocate_at_leastB8ue170006INS_9allocatorI7StudentEEEENS_19__allocation_resultINS_16allocator_traitsIT_E7pointerEEERS6_m, symObjAddr: 0x1DF0, symBinAddr: 0x100004428, symSize: 0x40 }
  - { offsetInCU: 0x7272, offset: 0x7272, size: 0x8, addend: 0x0, symName: __ZNSt3__13minB8ue170006ImEERKT_S3_S3_, symObjAddr: 0x1F2C, symBinAddr: 0x100004564, symSize: 0x2C }
  - { offsetInCU: 0x74B6, offset: 0x74B6, size: 0x8, addend: 0x0, symName: __ZNSt3__13minB8ue170006ImNS_6__lessIvvEEEERKT_S5_S5_T0_, symObjAddr: 0x1FB8, symBinAddr: 0x1000045F0, symSize: 0x54 }
  - { offsetInCU: 0x7555, offset: 0x7555, size: 0x8, addend: 0x0, symName: __ZNSt3__120__throw_length_errorB8ue170006EPKc, symObjAddr: 0x2094, symBinAddr: 0x1000046CC, symSize: 0x64 }
  - { offsetInCU: 0x757F, offset: 0x757F, size: 0x8, addend: 0x0, symName: __ZNSt3__117__libcpp_allocateB8ue170006Emm, symObjAddr: 0x2204, symBinAddr: 0x10000483C, symSize: 0x28 }
  - { offsetInCU: 0x75BC, offset: 0x75BC, size: 0x8, addend: 0x0, symName: __ZNSt3__121__libcpp_operator_newB8ue170006IJmEEEPvDpT_, symObjAddr: 0x222C, symBinAddr: 0x100004864, symSize: 0x24 }
  - { offsetInCU: 0x75F5, offset: 0x75F5, size: 0x8, addend: 0x0, symName: __ZNSt3__112__to_addressB8ue170006I7StudentEEPT_S3_, symObjAddr: 0x2348, symBinAddr: 0x100004980, symSize: 0x14 }
  - { offsetInCU: 0x762A, offset: 0x762A, size: 0x8, addend: 0x0, symName: __ZNSt3__119__libcpp_deallocateB8ue170006EPvmm, symObjAddr: 0x2924, symBinAddr: 0x100004F5C, symSize: 0x30 }
  - { offsetInCU: 0x7672, offset: 0x7672, size: 0x8, addend: 0x0, symName: __ZNSt3__127__do_deallocate_handle_sizeB8ue170006IJEEEvPvmDpT_, symObjAddr: 0x2954, symBinAddr: 0x100004F8C, symSize: 0x28 }
  - { offsetInCU: 0x76B0, offset: 0x76B0, size: 0x8, addend: 0x0, symName: __ZNSt3__124__libcpp_operator_deleteB8ue170006IJPvEEEvDpT_, symObjAddr: 0x297C, symBinAddr: 0x100004FB4, symSize: 0x24 }
  - { offsetInCU: 0x76E5, offset: 0x76E5, size: 0x8, addend: 0x0, symName: __ZNSt3__112__to_addressB8ue170006IKcEEPT_S3_, symObjAddr: 0x2D54, symBinAddr: 0x10000538C, symSize: 0x14 }
  - { offsetInCU: 0x774D, offset: 0x774D, size: 0x8, addend: 0x0, symName: __ZNSt3__142__uninitialized_allocator_move_if_noexceptB8ue170006INS_9allocatorI7StudentEENS_16reverse_iteratorIPS2_EES6_S6_EET2_RT_T0_T1_S7_, symObjAddr: 0x3280, symBinAddr: 0x1000058B8, symSize: 0x12C }
  - { offsetInCU: 0x77ED, offset: 0x77ED, size: 0x8, addend: 0x0, symName: __ZNSt3__14swapB8ue170006IP7StudentEENS_9enable_ifIXaasr21is_move_constructibleIT_EE5valuesr18is_move_assignableIS4_EE5valueEvE4typeERS4_S7_, symObjAddr: 0x33F8, symBinAddr: 0x100005A30, symSize: 0x3C }
  - { offsetInCU: 0x783E, offset: 0x783E, size: 0x8, addend: 0x0, symName: __ZNSt3__122__make_exception_guardB8ue170006INS_29_AllocatorDestroyRangeReverseINS_9allocatorI7StudentEENS_16reverse_iteratorIPS3_EEEEEENS_28__exception_guard_exceptionsIT_EESA_, symObjAddr: 0x3434, symBinAddr: 0x100005A6C, symSize: 0x4C }
  - { offsetInCU: 0x7874, offset: 0x7874, size: 0x8, addend: 0x0, symName: __ZNSt3__1neB8ue170006IP7StudentS2_EEbRKNS_16reverse_iteratorIT_EERKNS3_IT0_EE, symObjAddr: 0x34C4, symBinAddr: 0x100005AFC, symSize: 0x48 }
  - { offsetInCU: 0x78C0, offset: 0x78C0, size: 0x8, addend: 0x0, symName: __ZNSt3__112__to_addressB8ue170006INS_16reverse_iteratorIP7StudentEEvEEu7__decayIDTclsr19__to_address_helperIT_EE6__callclsr3stdE7declvalIRKS5_EEEEES7_, symObjAddr: 0x3540, symBinAddr: 0x100005B78, symSize: 0x24 }
  - { offsetInCU: 0x791F, offset: 0x791F, size: 0x8, addend: 0x0, symName: __ZNSt3__119__allocator_destroyB8ue170006INS_9allocatorI7StudentEENS_16reverse_iteratorINS4_IPS2_EEEES7_EEvRT_T0_T1_, symObjAddr: 0x39AC, symBinAddr: 0x100005FE4, symSize: 0x70 }
  - { offsetInCU: 0x7984, offset: 0x7984, size: 0x8, addend: 0x0, symName: __ZNSt3__1neB8ue170006INS_16reverse_iteratorIP7StudentEES4_EEbRKNS1_IT_EERKNS1_IT0_EE, symObjAddr: 0x3A58, symBinAddr: 0x100006090, symSize: 0x60 }
  - { offsetInCU: 0x79D0, offset: 0x79D0, size: 0x8, addend: 0x0, symName: __ZNSt3__112__to_addressB8ue170006INS_16reverse_iteratorINS1_IP7StudentEEEEvEEu7__decayIDTclsr19__to_address_helperIT_EE6__callclsr3stdE7declvalIRKS6_EEEEES8_, symObjAddr: 0x3AB8, symBinAddr: 0x1000060F0, symSize: 0x24 }
  - { offsetInCU: 0x7FC5, offset: 0x7FC5, size: 0x8, addend: 0x0, symName: __ZNSt3__19use_facetB8ue170006INS_5ctypeIcEEEERKT_RKNS_6localeE, symObjAddr: 0x3F78, symBinAddr: 0x1000065B0, symSize: 0x2C }
  - { offsetInCU: 0x85D8, offset: 0x85D8, size: 0x8, addend: 0x0, symName: __ZNSt3__13maxB8ue170006ImEERKT_S3_S3_, symObjAddr: 0x48CC, symBinAddr: 0x100006F04, symSize: 0x2C }
  - { offsetInCU: 0x861B, offset: 0x861B, size: 0x8, addend: 0x0, symName: __ZNSt3__13maxB8ue170006ImNS_6__lessIvvEEEERKT_S5_S5_T0_, symObjAddr: 0x48F8, symBinAddr: 0x100006F30, symSize: 0x54 }
  - { offsetInCU: 0x8675, offset: 0x8675, size: 0x8, addend: 0x0, symName: __ZNSt3__116__pad_and_outputB8ue170006IcNS_11char_traitsIcEEEENS_19ostreambuf_iteratorIT_T0_EES6_PKS4_S8_S8_RNS_8ios_baseES4_, symObjAddr: 0x4BD8, symBinAddr: 0x100007210, symSize: 0x240 }
  - { offsetInCU: 0x8A35, offset: 0x8A35, size: 0x8, addend: 0x0, symName: __ZSt28__throw_bad_array_new_lengthB8ue170006v, symObjAddr: 0x21D0, symBinAddr: 0x100004808, symSize: 0x34 }
  - { offsetInCU: 0x8FBE, offset: 0x8FBE, size: 0x8, addend: 0x0, symName: __ZNSt3__16vectorI7StudentNS_9allocatorIS1_EEE26__swap_out_circular_bufferERNS_14__split_bufferIS1_RS3_EE, symObjAddr: 0x2F18, symBinAddr: 0x100005550, symSize: 0x110 }
  - { offsetInCU: 0xB3EF, offset: 0xB3EF, size: 0x8, addend: 0x0, symName: __Z9MergeDateRNSt3__16vectorI7StudentNS_9allocatorIS1_EEEEiiiNS_12basic_stringIcNS_11char_traitsIcEENS2_IcEEEE, symObjAddr: 0x0, symBinAddr: 0x100002638, symSize: 0x810 }
  - { offsetInCU: 0xB536, offset: 0xB536, size: 0x8, addend: 0x0, symName: __ZNSt3__16vectorI7StudentNS_9allocatorIS1_EEEC1Em, symObjAddr: 0x810, symBinAddr: 0x100002E48, symSize: 0x34 }
  - { offsetInCU: 0xB570, offset: 0xB570, size: 0x8, addend: 0x0, symName: __ZNSt3__16vectorI7StudentNS_9allocatorIS1_EEEixB8ue170006Em, symObjAddr: 0x844, symBinAddr: 0x100002E7C, symSize: 0x24 }
  - { offsetInCU: 0xB5A6, offset: 0xB5A6, size: 0x8, addend: 0x0, symName: __ZN7StudentaSERKS_, symObjAddr: 0x868, symBinAddr: 0x100002EA0, symSize: 0x5C }
  - { offsetInCU: 0xB5D6, offset: 0xB5D6, size: 0x8, addend: 0x0, symName: __ZNSt3__16vectorI7StudentNS_9allocatorIS1_EEED1B8ue170006Ev, symObjAddr: 0xAF0, symBinAddr: 0x100003128, symSize: 0x2C }
  - { offsetInCU: 0xB5FF, offset: 0xB5FF, size: 0x8, addend: 0x0, symName: __Z9MergeSortRNSt3__16vectorI7StudentNS_9allocatorIS1_EEEEiiNS_12basic_stringIcNS_11char_traitsIcEENS2_IcEEEE, symObjAddr: 0xB1C, symBinAddr: 0x100003154, symSize: 0x1A0 }
  - { offsetInCU: 0xB667, offset: 0xB667, size: 0x8, addend: 0x0, symName: _main, symObjAddr: 0xCBC, symBinAddr: 0x1000032F4, symSize: 0x390 }
  - { offsetInCU: 0xB769, offset: 0xB769, size: 0x8, addend: 0x0, symName: __ZNSt3__16vectorI7StudentNS_9allocatorIS1_EEEC1B8ue170006Ev, symObjAddr: 0x104C, symBinAddr: 0x100003684, symSize: 0x2C }
  - { offsetInCU: 0xB791, offset: 0xB791, size: 0x8, addend: 0x0, symName: __ZNSt3__16vectorI7StudentNS_9allocatorIS1_EEE7reserveEm, symObjAddr: 0x1078, symBinAddr: 0x1000036B0, symSize: 0xE8 }
  - { offsetInCU: 0xB7F1, offset: 0xB7F1, size: 0x8, addend: 0x0, symName: __ZNSt3__112basic_stringIcNS_11char_traitsIcEENS_9allocatorIcEEEC1B8ue170006ILi0EEEPKc, symObjAddr: 0x1160, symBinAddr: 0x100003798, symSize: 0x34 }
  - { offsetInCU: 0xB838, offset: 0xB838, size: 0x8, addend: 0x0, symName: __ZNSt3__16vectorI7StudentNS_9allocatorIS1_EEE12emplace_backIJRNS_12basic_stringIcNS_11char_traitsIcEENS2_IcEEEESB_RiSC_SC_EEEvDpOT_, symObjAddr: 0x14B0, symBinAddr: 0x100003AE8, symSize: 0x9C }
  - { offsetInCU: 0xB8C8, offset: 0xB8C8, size: 0x8, addend: 0x0, symName: __ZNSt3__16vectorI7StudentNS_9allocatorIS1_EEE5beginB8ue170006Ev, symObjAddr: 0x154C, symBinAddr: 0x100003B84, symSize: 0x30 }
  - { offsetInCU: 0xB8EE, offset: 0xB8EE, size: 0x8, addend: 0x0, symName: __ZNSt3__16vectorI7StudentNS_9allocatorIS1_EEE3endB8ue170006Ev, symObjAddr: 0x157C, symBinAddr: 0x100003BB4, symSize: 0x30 }
  - { offsetInCU: 0xB915, offset: 0xB915, size: 0x8, addend: 0x0, symName: __ZNKSt3__111__wrap_iterIP7StudentEdeB8ue170006Ev, symObjAddr: 0x15E0, symBinAddr: 0x100003C18, symSize: 0x18 }
  - { offsetInCU: 0xB93A, offset: 0xB93A, size: 0x8, addend: 0x0, symName: __ZNSt3__111__wrap_iterIP7StudentEppB8ue170006Ev, symObjAddr: 0x16C0, symBinAddr: 0x100003CF8, symSize: 0x20 }
  - { offsetInCU: 0xB95F, offset: 0xB95F, size: 0x8, addend: 0x0, symName: __ZNKSt3__111__wrap_iterIP7StudentE4baseB8ue170006Ev, symObjAddr: 0x1728, symBinAddr: 0x100003D60, symSize: 0x18 }
  - { offsetInCU: 0xB984, offset: 0xB984, size: 0x8, addend: 0x0, symName: __ZNSt3__112basic_stringIcNS_11char_traitsIcEENS_9allocatorIcEEEC2B8ue170006ILi0EEEPKc, symObjAddr: 0x1740, symBinAddr: 0x100003D78, symSize: 0x58 }
  - { offsetInCU: 0xB9C7, offset: 0xB9C7, size: 0x8, addend: 0x0, symName: __ZNSt3__117__compressed_pairINS_12basic_stringIcNS_11char_traitsIcEENS_9allocatorIcEEE5__repES5_EC1B8ue170006INS_18__default_init_tagESA_EEOT_OT0_, symObjAddr: 0x1798, symBinAddr: 0x100003DD0, symSize: 0x3C }
  - { offsetInCU: 0xBA1E, offset: 0xBA1E, size: 0x8, addend: 0x0, symName: __ZNSt3__111char_traitsIcE6lengthB8ue170006EPKc, symObjAddr: 0x17D4, symBinAddr: 0x100003E0C, symSize: 0x34 }
  - { offsetInCU: 0xBA41, offset: 0xBA41, size: 0x8, addend: 0x0, symName: __ZNSt3__117__compressed_pairINS_12basic_stringIcNS_11char_traitsIcEENS_9allocatorIcEEE5__repES5_EC2B8ue170006INS_18__default_init_tagESA_EEOT_OT0_, symObjAddr: 0x1808, symBinAddr: 0x100003E40, symSize: 0x3C }
  - { offsetInCU: 0xBA98, offset: 0xBA98, size: 0x8, addend: 0x0, symName: __ZNSt3__122__compressed_pair_elemINS_12basic_stringIcNS_11char_traitsIcEENS_9allocatorIcEEE5__repELi0ELb0EEC2B8ue170006ENS_18__default_init_tagE, symObjAddr: 0x1844, symBinAddr: 0x100003E7C, symSize: 0x14 }
  - { offsetInCU: 0xBACC, offset: 0xBACC, size: 0x8, addend: 0x0, symName: __ZNSt3__122__compressed_pair_elemINS_9allocatorIcEELi1ELb1EEC2B8ue170006ENS_18__default_init_tagE, symObjAddr: 0x1858, symBinAddr: 0x100003E90, symSize: 0x2C }
  - { offsetInCU: 0xBB00, offset: 0xBB00, size: 0x8, addend: 0x0, symName: __ZNSt3__19allocatorIcEC2B8ue170006Ev, symObjAddr: 0x1884, symBinAddr: 0x100003EBC, symSize: 0x2C }
  - { offsetInCU: 0xBB29, offset: 0xBB29, size: 0x8, addend: 0x0, symName: __ZNSt3__116__non_trivial_ifILb1ENS_9allocatorIcEEEC2B8ue170006Ev, symObjAddr: 0x18B0, symBinAddr: 0x100003EE8, symSize: 0x14 }
  - { offsetInCU: 0xBB52, offset: 0xBB52, size: 0x8, addend: 0x0, symName: __ZNSt3__16vectorI7StudentNS_9allocatorIS1_EEEC2Em, symObjAddr: 0x18F4, symBinAddr: 0x100003F2C, symSize: 0xD4 }
  - { offsetInCU: 0xBBA6, offset: 0xBBA6, size: 0x8, addend: 0x0, symName: __ZNSt3__117__compressed_pairIP7StudentNS_9allocatorIS1_EEEC1B8ue170006IDnNS_18__default_init_tagEEEOT_OT0_, symObjAddr: 0x19C8, symBinAddr: 0x100004000, symSize: 0x3C }
  - { offsetInCU: 0xBBFD, offset: 0xBBFD, size: 0x8, addend: 0x0, symName: __ZNSt3__16vectorI7StudentNS_9allocatorIS1_EEE16__destroy_vectorC1B8ue170006ERS4_, symObjAddr: 0x1A44, symBinAddr: 0x10000407C, symSize: 0x34 }
  - { offsetInCU: 0xBC35, offset: 0xBC35, size: 0x8, addend: 0x0, symName: __ZNSt3__16vectorI7StudentNS_9allocatorIS1_EEE11__vallocateB8ue170006Em, symObjAddr: 0x1A78, symBinAddr: 0x1000040B0, symSize: 0xAC }
  - { offsetInCU: 0xBC77, offset: 0xBC77, size: 0x8, addend: 0x0, symName: __ZNSt3__16vectorI7StudentNS_9allocatorIS1_EEE18__construct_at_endEm, symObjAddr: 0x1B24, symBinAddr: 0x10000415C, symSize: 0xC8 }
  - { offsetInCU: 0xBCE9, offset: 0xBCE9, size: 0x8, addend: 0x0, symName: __ZNSt3__128__exception_guard_exceptionsINS_6vectorI7StudentNS_9allocatorIS2_EEE16__destroy_vectorEE10__completeB8ue170006Ev, symObjAddr: 0x1BEC, symBinAddr: 0x100004224, symSize: 0x1C }
  - { offsetInCU: 0xBD0E, offset: 0xBD0E, size: 0x8, addend: 0x0, symName: __ZNSt3__128__exception_guard_exceptionsINS_6vectorI7StudentNS_9allocatorIS2_EEE16__destroy_vectorEED1B8ue170006Ev, symObjAddr: 0x1C08, symBinAddr: 0x100004240, symSize: 0x2C }
  - { offsetInCU: 0xBD37, offset: 0xBD37, size: 0x8, addend: 0x0, symName: __ZNSt3__117__compressed_pairIP7StudentNS_9allocatorIS1_EEEC2B8ue170006IDnNS_18__default_init_tagEEEOT_OT0_, symObjAddr: 0x1C34, symBinAddr: 0x10000426C, symSize: 0x40 }
  - { offsetInCU: 0xBD8E, offset: 0xBD8E, size: 0x8, addend: 0x0, symName: __ZNSt3__122__compressed_pair_elemIP7StudentLi0ELb0EEC2B8ue170006IDnvEEOT_, symObjAddr: 0x1C74, symBinAddr: 0x1000042AC, symSize: 0x1C }
  - { offsetInCU: 0xBDCF, offset: 0xBDCF, size: 0x8, addend: 0x0, symName: __ZNSt3__122__compressed_pair_elemINS_9allocatorI7StudentEELi1ELb1EEC2B8ue170006ENS_18__default_init_tagE, symObjAddr: 0x1C90, symBinAddr: 0x1000042C8, symSize: 0x2C }
  - { offsetInCU: 0xBE03, offset: 0xBE03, size: 0x8, addend: 0x0, symName: __ZNSt3__19allocatorI7StudentEC2B8ue170006Ev, symObjAddr: 0x1CBC, symBinAddr: 0x1000042F4, symSize: 0x2C }
  - { offsetInCU: 0xBE2C, offset: 0xBE2C, size: 0x8, addend: 0x0, symName: __ZNSt3__116__non_trivial_ifILb1ENS_9allocatorI7StudentEEEC2B8ue170006Ev, symObjAddr: 0x1CE8, symBinAddr: 0x100004320, symSize: 0x14 }
  - { offsetInCU: 0xBE55, offset: 0xBE55, size: 0x8, addend: 0x0, symName: __ZNSt3__128__exception_guard_exceptionsINS_6vectorI7StudentNS_9allocatorIS2_EEE16__destroy_vectorEEC1B8ue170006ES6_, symObjAddr: 0x1CFC, symBinAddr: 0x100004334, symSize: 0x34 }
  - { offsetInCU: 0xBE8C, offset: 0xBE8C, size: 0x8, addend: 0x0, symName: __ZNSt3__128__exception_guard_exceptionsINS_6vectorI7StudentNS_9allocatorIS2_EEE16__destroy_vectorEEC2B8ue170006ES6_, symObjAddr: 0x1D30, symBinAddr: 0x100004368, symSize: 0x24 }
  - { offsetInCU: 0xBEC3, offset: 0xBEC3, size: 0x8, addend: 0x0, symName: __ZNSt3__16vectorI7StudentNS_9allocatorIS1_EEE16__destroy_vectorC2B8ue170006ERS4_, symObjAddr: 0x1D54, symBinAddr: 0x10000438C, symSize: 0x20 }
  - { offsetInCU: 0xBEFA, offset: 0xBEFA, size: 0x8, addend: 0x0, symName: __ZNKSt3__16vectorI7StudentNS_9allocatorIS1_EEE8max_sizeEv, symObjAddr: 0x1D74, symBinAddr: 0x1000043AC, symSize: 0x60 }
  - { offsetInCU: 0xBF21, offset: 0xBF21, size: 0x8, addend: 0x0, symName: __ZNKSt3__16vectorI7StudentNS_9allocatorIS1_EEE20__throw_length_errorB8ue170006Ev, symObjAddr: 0x1DD4, symBinAddr: 0x10000440C, symSize: 0x1C }
  - { offsetInCU: 0xBF46, offset: 0xBF46, size: 0x8, addend: 0x0, symName: __ZNSt3__16vectorI7StudentNS_9allocatorIS1_EEE7__allocB8ue170006Ev, symObjAddr: 0x1E30, symBinAddr: 0x100004468, symSize: 0x28 }
  - { offsetInCU: 0xBF6B, offset: 0xBF6B, size: 0x8, addend: 0x0, symName: __ZNSt3__16vectorI7StudentNS_9allocatorIS1_EEE9__end_capB8ue170006Ev, symObjAddr: 0x1E58, symBinAddr: 0x100004490, symSize: 0x28 }
  - { offsetInCU: 0xBF90, offset: 0xBF90, size: 0x8, addend: 0x0, symName: __ZNKSt3__16vectorI7StudentNS_9allocatorIS1_EEE14__annotate_newB8ue170006Em, symObjAddr: 0x1E80, symBinAddr: 0x1000044B8, symSize: 0xAC }
  - { offsetInCU: 0xBFCE, offset: 0xBFCE, size: 0x8, addend: 0x0, symName: __ZNSt3__116allocator_traitsINS_9allocatorI7StudentEEE8max_sizeB8ue170006IS3_vEEmRKS3_, symObjAddr: 0x1F58, symBinAddr: 0x100004590, symSize: 0x24 }
  - { offsetInCU: 0xBFFC, offset: 0xBFFC, size: 0x8, addend: 0x0, symName: __ZNKSt3__16vectorI7StudentNS_9allocatorIS1_EEE7__allocB8ue170006Ev, symObjAddr: 0x1F7C, symBinAddr: 0x1000045B4, symSize: 0x28 }
  - { offsetInCU: 0xC021, offset: 0xC021, size: 0x8, addend: 0x0, symName: __ZNSt3__114numeric_limitsIlE3maxB8ue170006Ev, symObjAddr: 0x1FA4, symBinAddr: 0x1000045DC, symSize: 0x14 }
  - { offsetInCU: 0xC049, offset: 0xC049, size: 0x8, addend: 0x0, symName: __ZNKSt3__16__lessIvvEclB8ue170006ImmEEbRKT_RKT0_, symObjAddr: 0x200C, symBinAddr: 0x100004644, symSize: 0x34 }
  - { offsetInCU: 0xC09C, offset: 0xC09C, size: 0x8, addend: 0x0, symName: __ZNKSt3__19allocatorI7StudentE8max_sizeB8ue170006Ev, symObjAddr: 0x2040, symBinAddr: 0x100004678, symSize: 0x14 }
  - { offsetInCU: 0xC0C1, offset: 0xC0C1, size: 0x8, addend: 0x0, symName: __ZNKSt3__117__compressed_pairIP7StudentNS_9allocatorIS1_EEE6secondB8ue170006Ev, symObjAddr: 0x2054, symBinAddr: 0x10000468C, symSize: 0x24 }
  - { offsetInCU: 0xC0E6, offset: 0xC0E6, size: 0x8, addend: 0x0, symName: __ZNKSt3__122__compressed_pair_elemINS_9allocatorI7StudentEELi1ELb1EE5__getB8ue170006Ev, symObjAddr: 0x2078, symBinAddr: 0x1000046B0, symSize: 0x14 }
  - { offsetInCU: 0xC10B, offset: 0xC10B, size: 0x8, addend: 0x0, symName: __ZNSt3__123__libcpp_numeric_limitsIlLb1EE3maxB8ue170006Ev, symObjAddr: 0x208C, symBinAddr: 0x1000046C4, symSize: 0x8 }
  - { offsetInCU: 0xC11F, offset: 0xC11F, size: 0x8, addend: 0x0, symName: __ZNSt12length_errorC1B8ue170006EPKc, symObjAddr: 0x20F8, symBinAddr: 0x100004730, symSize: 0x34 }
  - { offsetInCU: 0xC156, offset: 0xC156, size: 0x8, addend: 0x0, symName: __ZNSt12length_errorC2B8ue170006EPKc, symObjAddr: 0x212C, symBinAddr: 0x100004764, symSize: 0x4C }
  - { offsetInCU: 0xC18D, offset: 0xC18D, size: 0x8, addend: 0x0, symName: __ZNSt3__19allocatorI7StudentE8allocateB8ue170006Em, symObjAddr: 0x2178, symBinAddr: 0x1000047B0, symSize: 0x58 }
  - { offsetInCU: 0xC1C0, offset: 0xC1C0, size: 0x8, addend: 0x0, symName: __ZNSt3__117__compressed_pairIP7StudentNS_9allocatorIS1_EEE6secondB8ue170006Ev, symObjAddr: 0x2250, symBinAddr: 0x100004888, symSize: 0x24 }
  - { offsetInCU: 0xC1E5, offset: 0xC1E5, size: 0x8, addend: 0x0, symName: __ZNSt3__122__compressed_pair_elemINS_9allocatorI7StudentEELi1ELb1EE5__getB8ue170006Ev, symObjAddr: 0x2274, symBinAddr: 0x1000048AC, symSize: 0x14 }
  - { offsetInCU: 0xC20A, offset: 0xC20A, size: 0x8, addend: 0x0, symName: __ZNSt3__117__compressed_pairIP7StudentNS_9allocatorIS1_EEE5firstB8ue170006Ev, symObjAddr: 0x2288, symBinAddr: 0x1000048C0, symSize: 0x24 }
  - { offsetInCU: 0xC22F, offset: 0xC22F, size: 0x8, addend: 0x0, symName: __ZNSt3__122__compressed_pair_elemIP7StudentLi0ELb0EE5__getB8ue170006Ev, symObjAddr: 0x22AC, symBinAddr: 0x1000048E4, symSize: 0x14 }
  - { offsetInCU: 0xC254, offset: 0xC254, size: 0x8, addend: 0x0, symName: __ZNKSt3__16vectorI7StudentNS_9allocatorIS1_EEE31__annotate_contiguous_containerB8ue170006EPKvS6_S6_S6_, symObjAddr: 0x22C0, symBinAddr: 0x1000048F8, symSize: 0x20 }
  - { offsetInCU: 0xC2A9, offset: 0xC2A9, size: 0x8, addend: 0x0, symName: __ZNKSt3__16vectorI7StudentNS_9allocatorIS1_EEE4dataB8ue170006Ev, symObjAddr: 0x22E0, symBinAddr: 0x100004918, symSize: 0x28 }
  - { offsetInCU: 0xC2CE, offset: 0xC2CE, size: 0x8, addend: 0x0, symName: __ZNKSt3__16vectorI7StudentNS_9allocatorIS1_EEE8capacityB8ue170006Ev, symObjAddr: 0x2308, symBinAddr: 0x100004940, symSize: 0x40 }
  - { offsetInCU: 0xC2F3, offset: 0xC2F3, size: 0x8, addend: 0x0, symName: __ZNKSt3__16vectorI7StudentNS_9allocatorIS1_EEE9__end_capB8ue170006Ev, symObjAddr: 0x235C, symBinAddr: 0x100004994, symSize: 0x28 }
  - { offsetInCU: 0xC318, offset: 0xC318, size: 0x8, addend: 0x0, symName: __ZNKSt3__117__compressed_pairIP7StudentNS_9allocatorIS1_EEE5firstB8ue170006Ev, symObjAddr: 0x2384, symBinAddr: 0x1000049BC, symSize: 0x24 }
  - { offsetInCU: 0xC33D, offset: 0xC33D, size: 0x8, addend: 0x0, symName: __ZNKSt3__122__compressed_pair_elemIP7StudentLi0ELb0EE5__getB8ue170006Ev, symObjAddr: 0x23A8, symBinAddr: 0x1000049E0, symSize: 0x14 }
  - { offsetInCU: 0xC37B, offset: 0xC37B, size: 0x8, addend: 0x0, symName: __ZNSt3__16vectorI7StudentNS_9allocatorIS1_EEE21_ConstructTransactionC1B8ue170006ERS4_m, symObjAddr: 0x23BC, symBinAddr: 0x1000049F4, symSize: 0x3C }
  - { offsetInCU: 0xC3C2, offset: 0xC3C2, size: 0x8, addend: 0x0, symName: __ZNSt3__116allocator_traitsINS_9allocatorI7StudentEEE9constructB8ue170006IS2_JEvEEvRS3_PT_DpOT0_, symObjAddr: 0x23F8, symBinAddr: 0x100004A30, symSize: 0x2C }
  - { offsetInCU: 0xC404, offset: 0xC404, size: 0x8, addend: 0x0, symName: __ZNSt3__16vectorI7StudentNS_9allocatorIS1_EEE21_ConstructTransactionD1B8ue170006Ev, symObjAddr: 0x2424, symBinAddr: 0x100004A5C, symSize: 0x2C }
  - { offsetInCU: 0xC42D, offset: 0xC42D, size: 0x8, addend: 0x0, symName: __ZNSt3__16vectorI7StudentNS_9allocatorIS1_EEE21_ConstructTransactionC2B8ue170006ERS4_m, symObjAddr: 0x2450, symBinAddr: 0x100004A88, symSize: 0x44 }
  - { offsetInCU: 0xC474, offset: 0xC474, size: 0x8, addend: 0x0, symName: __ZNSt3__19allocatorI7StudentE9constructB8ue170006IS1_JEEEvPT_DpOT0_, symObjAddr: 0x2494, symBinAddr: 0x100004ACC, symSize: 0x28 }
  - { offsetInCU: 0xC4B5, offset: 0xC4B5, size: 0x8, addend: 0x0, symName: __ZN7StudentC1Ev, symObjAddr: 0x24BC, symBinAddr: 0x100004AF4, symSize: 0x2C }
  - { offsetInCU: 0xC4DE, offset: 0xC4DE, size: 0x8, addend: 0x0, symName: __ZN7StudentC2Ev, symObjAddr: 0x24E8, symBinAddr: 0x100004B20, symSize: 0x7C }
  - { offsetInCU: 0xC507, offset: 0xC507, size: 0x8, addend: 0x0, symName: __ZNSt3__16vectorI7StudentNS_9allocatorIS1_EEE21_ConstructTransactionD2B8ue170006Ev, symObjAddr: 0x2564, symBinAddr: 0x100004B9C, symSize: 0x20 }
  - { offsetInCU: 0xC530, offset: 0xC530, size: 0x8, addend: 0x0, symName: __ZNSt3__128__exception_guard_exceptionsINS_6vectorI7StudentNS_9allocatorIS2_EEE16__destroy_vectorEED2B8ue170006Ev, symObjAddr: 0x2584, symBinAddr: 0x100004BBC, symSize: 0x50 }
  - { offsetInCU: 0xC559, offset: 0xC559, size: 0x8, addend: 0x0, symName: __ZNSt3__16vectorI7StudentNS_9allocatorIS1_EEE16__destroy_vectorclB8ue170006Ev, symObjAddr: 0x25D4, symBinAddr: 0x100004C0C, symSize: 0x90 }
  - { offsetInCU: 0xC57E, offset: 0xC57E, size: 0x8, addend: 0x0, symName: __ZNSt3__16vectorI7StudentNS_9allocatorIS1_EEE7__clearB8ue170006Ev, symObjAddr: 0x2664, symBinAddr: 0x100004C9C, symSize: 0x28 }
  - { offsetInCU: 0xC5A3, offset: 0xC5A3, size: 0x8, addend: 0x0, symName: __ZNKSt3__16vectorI7StudentNS_9allocatorIS1_EEE17__annotate_deleteB8ue170006Ev, symObjAddr: 0x268C, symBinAddr: 0x100004CC4, symSize: 0xB8 }
  - { offsetInCU: 0xC5C8, offset: 0xC5C8, size: 0x8, addend: 0x0, symName: __ZNSt3__116allocator_traitsINS_9allocatorI7StudentEEE10deallocateB8ue170006ERS3_PS2_m, symObjAddr: 0x2744, symBinAddr: 0x100004D7C, symSize: 0x34 }
  - { offsetInCU: 0xC60A, offset: 0xC60A, size: 0x8, addend: 0x0, symName: __ZNSt3__16vectorI7StudentNS_9allocatorIS1_EEE22__base_destruct_at_endB8ue170006EPS1_, symObjAddr: 0x2778, symBinAddr: 0x100004DB0, symSize: 0x8C }
  - { offsetInCU: 0xC64D, offset: 0xC64D, size: 0x8, addend: 0x0, symName: __ZNSt3__116allocator_traitsINS_9allocatorI7StudentEEE7destroyB8ue170006IS2_vEEvRS3_PT_, symObjAddr: 0x2804, symBinAddr: 0x100004E3C, symSize: 0x2C }
  - { offsetInCU: 0xC68A, offset: 0xC68A, size: 0x8, addend: 0x0, symName: __ZNSt3__19allocatorI7StudentE7destroyB8ue170006EPS1_, symObjAddr: 0x2830, symBinAddr: 0x100004E68, symSize: 0x28 }
  - { offsetInCU: 0xC6BD, offset: 0xC6BD, size: 0x8, addend: 0x0, symName: __ZN7StudentD1Ev, symObjAddr: 0x2858, symBinAddr: 0x100004E90, symSize: 0x2C }
  - { offsetInCU: 0xC6E8, offset: 0xC6E8, size: 0x8, addend: 0x0, symName: __ZN7StudentD2Ev, symObjAddr: 0x2884, symBinAddr: 0x100004EBC, symSize: 0x38 }
  - { offsetInCU: 0xC713, offset: 0xC713, size: 0x8, addend: 0x0, symName: __ZNKSt3__16vectorI7StudentNS_9allocatorIS1_EEE4sizeB8ue170006Ev, symObjAddr: 0x28BC, symBinAddr: 0x100004EF4, symSize: 0x28 }
  - { offsetInCU: 0xC738, offset: 0xC738, size: 0x8, addend: 0x0, symName: __ZNSt3__19allocatorI7StudentE10deallocateB8ue170006EPS1_m, symObjAddr: 0x28E4, symBinAddr: 0x100004F1C, symSize: 0x40 }
  - { offsetInCU: 0xC779, offset: 0xC779, size: 0x8, addend: 0x0, symName: __ZNSt3__16vectorI7StudentNS_9allocatorIS1_EEED2B8ue170006Ev, symObjAddr: 0x29A0, symBinAddr: 0x100004FD8, symSize: 0x40 }
  - { offsetInCU: 0xC7A2, offset: 0xC7A2, size: 0x8, addend: 0x0, symName: __ZNKSt3__112basic_stringIcNS_11char_traitsIcEENS_9allocatorIcEEE4sizeB8ue170006Ev, symObjAddr: 0x29E0, symBinAddr: 0x100005018, symSize: 0x54 }
  - { offsetInCU: 0xC7C7, offset: 0xC7C7, size: 0x8, addend: 0x0, symName: __ZNKSt3__112basic_stringIcNS_11char_traitsIcEENS_9allocatorIcEEE9__is_longB8ue170006Ev, symObjAddr: 0x2A34, symBinAddr: 0x10000506C, symSize: 0x38 }
  - { offsetInCU: 0xC7EC, offset: 0xC7EC, size: 0x8, addend: 0x0, symName: __ZNKSt3__112basic_stringIcNS_11char_traitsIcEENS_9allocatorIcEEE15__get_long_sizeB8ue170006Ev, symObjAddr: 0x2A6C, symBinAddr: 0x1000050A4, symSize: 0x28 }
  - { offsetInCU: 0xC811, offset: 0xC811, size: 0x8, addend: 0x0, symName: __ZNKSt3__112basic_stringIcNS_11char_traitsIcEENS_9allocatorIcEEE16__get_short_sizeB8ue170006Ev, symObjAddr: 0x2A94, symBinAddr: 0x1000050CC, symSize: 0x34 }
  - { offsetInCU: 0xC836, offset: 0xC836, size: 0x8, addend: 0x0, symName: __ZNKSt3__117__compressed_pairINS_12basic_stringIcNS_11char_traitsIcEENS_9allocatorIcEEE5__repES5_E5firstB8ue170006Ev, symObjAddr: 0x2AC8, symBinAddr: 0x100005100, symSize: 0x24 }
  - { offsetInCU: 0xC85B, offset: 0xC85B, size: 0x8, addend: 0x0, symName: __ZNKSt3__122__compressed_pair_elemINS_12basic_stringIcNS_11char_traitsIcEENS_9allocatorIcEEE5__repELi0ELb0EE5__getB8ue170006Ev, symObjAddr: 0x2AEC, symBinAddr: 0x100005124, symSize: 0x14 }
  - { offsetInCU: 0xC87F, offset: 0xC87F, size: 0x8, addend: 0x0, symName: __ZNKSt3__112basic_stringIcNS_11char_traitsIcEENS_9allocatorIcEEE7compareB8ue170006ERKS5_, symObjAddr: 0x2B00, symBinAddr: 0x100005138, symSize: 0x4C }
  - { offsetInCU: 0xC8B4, offset: 0xC8B4, size: 0x8, addend: 0x0, symName: __ZNKSt3__112basic_stringIcNS_11char_traitsIcEENS_9allocatorIcEEE7compareINS_17basic_string_viewIcS2_EELi0EEEiRKT_, symObjAddr: 0x2B4C, symBinAddr: 0x100005184, symSize: 0x12C }
  - { offsetInCU: 0xC936, offset: 0xC936, size: 0x8, addend: 0x0, symName: __ZNKSt3__112basic_stringIcNS_11char_traitsIcEENS_9allocatorIcEEEcvNS_17basic_string_viewIcS2_EEB8ue170006Ev, symObjAddr: 0x2C78, symBinAddr: 0x1000052B0, symSize: 0x50 }
  - { offsetInCU: 0xC95B, offset: 0xC95B, size: 0x8, addend: 0x0, symName: __ZNKSt3__117basic_string_viewIcNS_11char_traitsIcEEE4sizeB8ue170006Ev, symObjAddr: 0x2CC8, symBinAddr: 0x100005300, symSize: 0x18 }
  - { offsetInCU: 0xC980, offset: 0xC980, size: 0x8, addend: 0x0, symName: __ZNSt3__111char_traitsIcE7compareB8ue170006EPKcS3_m, symObjAddr: 0x2CE0, symBinAddr: 0x100005318, symSize: 0x34 }
  - { offsetInCU: 0xC9BF, offset: 0xC9BF, size: 0x8, addend: 0x0, symName: __ZNKSt3__112basic_stringIcNS_11char_traitsIcEENS_9allocatorIcEEE4dataB8ue170006Ev, symObjAddr: 0x2D14, symBinAddr: 0x10000534C, symSize: 0x28 }
  - { offsetInCU: 0xC9E4, offset: 0xC9E4, size: 0x8, addend: 0x0, symName: __ZNKSt3__117basic_string_viewIcNS_11char_traitsIcEEE4dataB8ue170006Ev, symObjAddr: 0x2D3C, symBinAddr: 0x100005374, symSize: 0x18 }
  - { offsetInCU: 0xCA09, offset: 0xCA09, size: 0x8, addend: 0x0, symName: __ZNKSt3__112basic_stringIcNS_11char_traitsIcEENS_9allocatorIcEEE13__get_pointerB8ue170006Ev, symObjAddr: 0x2D68, symBinAddr: 0x1000053A0, symSize: 0x54 }
  - { offsetInCU: 0xCA2E, offset: 0xCA2E, size: 0x8, addend: 0x0, symName: __ZNKSt3__112basic_stringIcNS_11char_traitsIcEENS_9allocatorIcEEE18__get_long_pointerB8ue170006Ev, symObjAddr: 0x2DBC, symBinAddr: 0x1000053F4, symSize: 0x28 }
  - { offsetInCU: 0xCA53, offset: 0xCA53, size: 0x8, addend: 0x0, symName: __ZNKSt3__112basic_stringIcNS_11char_traitsIcEENS_9allocatorIcEEE19__get_short_pointerB8ue170006Ev, symObjAddr: 0x2DE4, symBinAddr: 0x10000541C, symSize: 0x28 }
  - { offsetInCU: 0xCA78, offset: 0xCA78, size: 0x8, addend: 0x0, symName: __ZNSt3__114pointer_traitsIPKcE10pointer_toB8ue170006ERS1_, symObjAddr: 0x2E0C, symBinAddr: 0x100005444, symSize: 0x14 }
  - { offsetInCU: 0xCA9B, offset: 0xCA9B, size: 0x8, addend: 0x0, symName: __ZNSt3__117basic_string_viewIcNS_11char_traitsIcEEEC1B8ue170006EPKcm, symObjAddr: 0x2E20, symBinAddr: 0x100005458, symSize: 0x3C }
  - { offsetInCU: 0xCAE2, offset: 0xCAE2, size: 0x8, addend: 0x0, symName: __ZNSt3__117basic_string_viewIcNS_11char_traitsIcEEEC2B8ue170006EPKcm, symObjAddr: 0x2E5C, symBinAddr: 0x100005494, symSize: 0x2C }
  - { offsetInCU: 0xCB29, offset: 0xCB29, size: 0x8, addend: 0x0, symName: __ZNSt3__16vectorI7StudentNS_9allocatorIS1_EEEC2B8ue170006Ev, symObjAddr: 0x2E88, symBinAddr: 0x1000054C0, symSize: 0x4C }
  - { offsetInCU: 0xCB52, offset: 0xCB52, size: 0x8, addend: 0x0, symName: __ZNSt3__114__split_bufferI7StudentRNS_9allocatorIS1_EEEC1EmmS4_, symObjAddr: 0x2ED4, symBinAddr: 0x10000550C, symSize: 0x44 }
  - { offsetInCU: 0xCBA7, offset: 0xCBA7, size: 0x8, addend: 0x0, symName: __ZNSt3__114__split_bufferI7StudentRNS_9allocatorIS1_EEED1Ev, symObjAddr: 0x3028, symBinAddr: 0x100005660, symSize: 0x2C }
  - { offsetInCU: 0xCBD2, offset: 0xCBD2, size: 0x8, addend: 0x0, symName: __ZNSt3__114__split_bufferI7StudentRNS_9allocatorIS1_EEEC2EmmS4_, symObjAddr: 0x3054, symBinAddr: 0x10000568C, symSize: 0xD4 }
  - { offsetInCU: 0xCC45, offset: 0xCC45, size: 0x8, addend: 0x0, symName: __ZNSt3__117__compressed_pairIP7StudentRNS_9allocatorIS1_EEEC1B8ue170006IDnS5_EEOT_OT0_, symObjAddr: 0x3128, symBinAddr: 0x100005760, symSize: 0x3C }
  - { offsetInCU: 0xCC9C, offset: 0xCC9C, size: 0x8, addend: 0x0, symName: __ZNSt3__114__split_bufferI7StudentRNS_9allocatorIS1_EEE7__allocB8ue170006Ev, symObjAddr: 0x3164, symBinAddr: 0x10000579C, symSize: 0x28 }
  - { offsetInCU: 0xCCC1, offset: 0xCCC1, size: 0x8, addend: 0x0, symName: __ZNSt3__114__split_bufferI7StudentRNS_9allocatorIS1_EEE9__end_capB8ue170006Ev, symObjAddr: 0x318C, symBinAddr: 0x1000057C4, symSize: 0x28 }
  - { offsetInCU: 0xCCE6, offset: 0xCCE6, size: 0x8, addend: 0x0, symName: __ZNSt3__117__compressed_pairIP7StudentRNS_9allocatorIS1_EEEC2B8ue170006IDnS5_EEOT_OT0_, symObjAddr: 0x31B4, symBinAddr: 0x1000057EC, symSize: 0x48 }
  - { offsetInCU: 0xCD3D, offset: 0xCD3D, size: 0x8, addend: 0x0, symName: __ZNSt3__122__compressed_pair_elemIRNS_9allocatorI7StudentEELi1ELb0EEC2B8ue170006IS4_vEEOT_, symObjAddr: 0x31FC, symBinAddr: 0x100005834, symSize: 0x20 }
  - { offsetInCU: 0xCD7E, offset: 0xCD7E, size: 0x8, addend: 0x0, symName: __ZNSt3__117__compressed_pairIP7StudentRNS_9allocatorIS1_EEE6secondB8ue170006Ev, symObjAddr: 0x321C, symBinAddr: 0x100005854, symSize: 0x28 }
  - { offsetInCU: 0xCDA3, offset: 0xCDA3, size: 0x8, addend: 0x0, symName: __ZNSt3__122__compressed_pair_elemIRNS_9allocatorI7StudentEELi1ELb0EE5__getB8ue170006Ev, symObjAddr: 0x3244, symBinAddr: 0x10000587C, symSize: 0x18 }
  - { offsetInCU: 0xCDC8, offset: 0xCDC8, size: 0x8, addend: 0x0, symName: __ZNSt3__117__compressed_pairIP7StudentRNS_9allocatorIS1_EEE5firstB8ue170006Ev, symObjAddr: 0x325C, symBinAddr: 0x100005894, symSize: 0x24 }
  - { offsetInCU: 0xCDED, offset: 0xCDED, size: 0x8, addend: 0x0, symName: __ZNSt3__116reverse_iteratorIP7StudentEC1B8ue170006ES2_, symObjAddr: 0x33AC, symBinAddr: 0x1000059E4, symSize: 0x34 }
  - { offsetInCU: 0xCE24, offset: 0xCE24, size: 0x8, addend: 0x0, symName: __ZNKSt3__116reverse_iteratorIP7StudentE4baseB8ue170006Ev, symObjAddr: 0x33E0, symBinAddr: 0x100005A18, symSize: 0x18 }
  - { offsetInCU: 0xCE49, offset: 0xCE49, size: 0x8, addend: 0x0, symName: __ZNSt3__129_AllocatorDestroyRangeReverseINS_9allocatorI7StudentEENS_16reverse_iteratorIPS2_EEEC1B8ue170006ERS3_RS6_S9_, symObjAddr: 0x3480, symBinAddr: 0x100005AB8, symSize: 0x44 }
  - { offsetInCU: 0xCEA4, offset: 0xCEA4, size: 0x8, addend: 0x0, symName: __ZNSt3__116allocator_traitsINS_9allocatorI7StudentEEE9constructB8ue170006IS2_JS2_EvEEvRS3_PT_DpOT0_, symObjAddr: 0x350C, symBinAddr: 0x100005B44, symSize: 0x34 }
  - { offsetInCU: 0xCEFB, offset: 0xCEFB, size: 0x8, addend: 0x0, symName: __ZNKSt3__116reverse_iteratorIP7StudentEdeB8ue170006Ev, symObjAddr: 0x3564, symBinAddr: 0x100005B9C, symSize: 0x28 }
  - { offsetInCU: 0xCF2E, offset: 0xCF2E, size: 0x8, addend: 0x0, symName: __ZNSt3__116reverse_iteratorIP7StudentEppB8ue170006Ev, symObjAddr: 0x358C, symBinAddr: 0x100005BC4, symSize: 0x20 }
  - { offsetInCU: 0xCF53, offset: 0xCF53, size: 0x8, addend: 0x0, symName: __ZNSt3__128__exception_guard_exceptionsINS_29_AllocatorDestroyRangeReverseINS_9allocatorI7StudentEENS_16reverse_iteratorIPS3_EEEEE10__completeB8ue170006Ev, symObjAddr: 0x35AC, symBinAddr: 0x100005BE4, symSize: 0x1C }
  - { offsetInCU: 0xCF78, offset: 0xCF78, size: 0x8, addend: 0x0, symName: __ZNSt3__128__exception_guard_exceptionsINS_29_AllocatorDestroyRangeReverseINS_9allocatorI7StudentEENS_16reverse_iteratorIPS3_EEEEED1B8ue170006Ev, symObjAddr: 0x35C8, symBinAddr: 0x100005C00, symSize: 0x2C }
  - { offsetInCU: 0xCFA1, offset: 0xCFA1, size: 0x8, addend: 0x0, symName: __ZNSt3__128__exception_guard_exceptionsINS_29_AllocatorDestroyRangeReverseINS_9allocatorI7StudentEENS_16reverse_iteratorIPS3_EEEEEC1B8ue170006ES8_, symObjAddr: 0x35F4, symBinAddr: 0x100005C2C, symSize: 0x34 }
  - { offsetInCU: 0xCFD9, offset: 0xCFD9, size: 0x8, addend: 0x0, symName: __ZNSt3__128__exception_guard_exceptionsINS_29_AllocatorDestroyRangeReverseINS_9allocatorI7StudentEENS_16reverse_iteratorIPS3_EEEEEC2B8ue170006ES8_, symObjAddr: 0x3628, symBinAddr: 0x100005C60, symSize: 0x30 }
  - { offsetInCU: 0xD011, offset: 0xD011, size: 0x8, addend: 0x0, symName: __ZNSt3__129_AllocatorDestroyRangeReverseINS_9allocatorI7StudentEENS_16reverse_iteratorIPS2_EEEC2B8ue170006ERS3_RS6_S9_, symObjAddr: 0x3658, symBinAddr: 0x100005C90, symSize: 0x38 }
  - { offsetInCU: 0xD067, offset: 0xD067, size: 0x8, addend: 0x0, symName: __ZNSt3__19allocatorI7StudentE9constructB8ue170006IS1_JS1_EEEvPT_DpOT0_, symObjAddr: 0x3690, symBinAddr: 0x100005CC8, symSize: 0x30 }
  - { offsetInCU: 0xD0BC, offset: 0xD0BC, size: 0x8, addend: 0x0, symName: __ZN7StudentC1EOS_, symObjAddr: 0x36C0, symBinAddr: 0x100005CF8, symSize: 0x34 }
  - { offsetInCU: 0xD0F0, offset: 0xD0F0, size: 0x8, addend: 0x0, symName: __ZN7StudentC2EOS_, symObjAddr: 0x36F4, symBinAddr: 0x100005D2C, symSize: 0x5C }
  - { offsetInCU: 0xD124, offset: 0xD124, size: 0x8, addend: 0x0, symName: __ZNSt3__112basic_stringIcNS_11char_traitsIcEENS_9allocatorIcEEEC1B8ue170006EOS5_, symObjAddr: 0x3750, symBinAddr: 0x100005D88, symSize: 0x34 }
  - { offsetInCU: 0xD15C, offset: 0xD15C, size: 0x8, addend: 0x0, symName: __ZNSt3__112basic_stringIcNS_11char_traitsIcEENS_9allocatorIcEEEC2B8ue170006EOS5_, symObjAddr: 0x3784, symBinAddr: 0x100005DBC, symSize: 0x50 }
  - { offsetInCU: 0xD194, offset: 0xD194, size: 0x8, addend: 0x0, symName: __ZNSt3__112basic_stringIcNS_11char_traitsIcEENS_9allocatorIcEEE14__default_initB8ue170006Ev, symObjAddr: 0x37D4, symBinAddr: 0x100005E0C, symSize: 0x40 }
  - { offsetInCU: 0xD1B9, offset: 0xD1B9, size: 0x8, addend: 0x0, symName: __ZNSt3__117__compressed_pairINS_12basic_stringIcNS_11char_traitsIcEENS_9allocatorIcEEE5__repES5_E5firstB8ue170006Ev, symObjAddr: 0x3814, symBinAddr: 0x100005E4C, symSize: 0x24 }
  - { offsetInCU: 0xD1DE, offset: 0xD1DE, size: 0x8, addend: 0x0, symName: __ZNSt3__122__compressed_pair_elemINS_12basic_stringIcNS_11char_traitsIcEENS_9allocatorIcEEE5__repELi0ELb0EE5__getB8ue170006Ev, symObjAddr: 0x3838, symBinAddr: 0x100005E70, symSize: 0x14 }
  - { offsetInCU: 0xD208, offset: 0xD208, size: 0x8, addend: 0x0, symName: __ZNSt3__119__to_address_helperINS_16reverse_iteratorIP7StudentEEvE6__callB8ue170006ERKS4_, symObjAddr: 0x384C, symBinAddr: 0x100005E84, symSize: 0x38 }
  - { offsetInCU: 0xD22B, offset: 0xD22B, size: 0x8, addend: 0x0, symName: __ZNKSt3__116reverse_iteratorIP7StudentEptB8ue170006Ev, symObjAddr: 0x3884, symBinAddr: 0x100005EBC, symSize: 0x24 }
  - { offsetInCU: 0xD250, offset: 0xD250, size: 0x8, addend: 0x0, symName: __ZNSt3__128__exception_guard_exceptionsINS_29_AllocatorDestroyRangeReverseINS_9allocatorI7StudentEENS_16reverse_iteratorIPS3_EEEEED2B8ue170006Ev, symObjAddr: 0x38A8, symBinAddr: 0x100005EE0, symSize: 0x50 }
  - { offsetInCU: 0xD279, offset: 0xD279, size: 0x8, addend: 0x0, symName: __ZNKSt3__129_AllocatorDestroyRangeReverseINS_9allocatorI7StudentEENS_16reverse_iteratorIPS2_EEEclB8ue170006Ev, symObjAddr: 0x38F8, symBinAddr: 0x100005F30, symSize: 0xB4 }
  - { offsetInCU: 0xD29F, offset: 0xD29F, size: 0x8, addend: 0x0, symName: __ZNSt3__116reverse_iteratorINS0_IP7StudentEEEC1B8ue170006ES3_, symObjAddr: 0x3A1C, symBinAddr: 0x100006054, symSize: 0x3C }
  - { offsetInCU: 0xD2D6, offset: 0xD2D6, size: 0x8, addend: 0x0, symName: __ZNSt3__116reverse_iteratorINS0_IP7StudentEEEppB8ue170006Ev, symObjAddr: 0x3ADC, symBinAddr: 0x100006114, symSize: 0x30 }
  - { offsetInCU: 0xD2FB, offset: 0xD2FB, size: 0x8, addend: 0x0, symName: __ZNKSt3__116reverse_iteratorINS0_IP7StudentEEE4baseB8ue170006Ev, symObjAddr: 0x3B0C, symBinAddr: 0x100006144, symSize: 0x24 }
  - { offsetInCU: 0xD325, offset: 0xD325, size: 0x8, addend: 0x0, symName: __ZNSt3__119__to_address_helperINS_16reverse_iteratorINS1_IP7StudentEEEEvE6__callB8ue170006ERKS5_, symObjAddr: 0x3B30, symBinAddr: 0x100006168, symSize: 0x38 }
  - { offsetInCU: 0xD348, offset: 0xD348, size: 0x8, addend: 0x0, symName: __ZNKSt3__116reverse_iteratorINS0_IP7StudentEEEptB8ue170006Ev, symObjAddr: 0x3B68, symBinAddr: 0x1000061A0, symSize: 0x24 }
  - { offsetInCU: 0xD36D, offset: 0xD36D, size: 0x8, addend: 0x0, symName: __ZNKSt3__116reverse_iteratorINS0_IP7StudentEEEdeB8ue170006Ev, symObjAddr: 0x3B8C, symBinAddr: 0x1000061C4, symSize: 0x34 }
  - { offsetInCU: 0xD3A0, offset: 0xD3A0, size: 0x8, addend: 0x0, symName: __ZNSt3__116reverse_iteratorIP7StudentEmmB8ue170006Ev, symObjAddr: 0x3BC0, symBinAddr: 0x1000061F8, symSize: 0x20 }
  - { offsetInCU: 0xD3C5, offset: 0xD3C5, size: 0x8, addend: 0x0, symName: __ZNSt3__116reverse_iteratorINS0_IP7StudentEEEC2B8ue170006ES3_, symObjAddr: 0x3BE0, symBinAddr: 0x100006218, symSize: 0x2C }
  - { offsetInCU: 0xD3FC, offset: 0xD3FC, size: 0x8, addend: 0x0, symName: __ZNSt3__116reverse_iteratorIP7StudentEC2B8ue170006ES2_, symObjAddr: 0x3C0C, symBinAddr: 0x100006244, symSize: 0x28 }
  - { offsetInCU: 0xD433, offset: 0xD433, size: 0x8, addend: 0x0, symName: __ZNSt3__114__split_bufferI7StudentRNS_9allocatorIS1_EEED2Ev, symObjAddr: 0x3C34, symBinAddr: 0x10000626C, symSize: 0x8C }
  - { offsetInCU: 0xD45E, offset: 0xD45E, size: 0x8, addend: 0x0, symName: __ZNSt3__114__split_bufferI7StudentRNS_9allocatorIS1_EEE5clearB8ue170006Ev, symObjAddr: 0x3CC0, symBinAddr: 0x1000062F8, symSize: 0x28 }
  - { offsetInCU: 0xD483, offset: 0xD483, size: 0x8, addend: 0x0, symName: __ZNKSt3__114__split_bufferI7StudentRNS_9allocatorIS1_EEE8capacityB8ue170006Ev, symObjAddr: 0x3CE8, symBinAddr: 0x100006320, symSize: 0x40 }
  - { offsetInCU: 0xD4A8, offset: 0xD4A8, size: 0x8, addend: 0x0, symName: __ZNSt3__114__split_bufferI7StudentRNS_9allocatorIS1_EEE17__destruct_at_endB8ue170006EPS1_, symObjAddr: 0x3D28, symBinAddr: 0x100006360, symSize: 0x2C }
  - { offsetInCU: 0xD4DA, offset: 0xD4DA, size: 0x8, addend: 0x0, symName: __ZNSt3__114__split_bufferI7StudentRNS_9allocatorIS1_EEE17__destruct_at_endB8ue170006EPS1_NS_17integral_constantIbLb0EEE, symObjAddr: 0x3D54, symBinAddr: 0x10000638C, symSize: 0x80 }
  - { offsetInCU: 0xD51A, offset: 0xD51A, size: 0x8, addend: 0x0, symName: __ZNKSt3__114__split_bufferI7StudentRNS_9allocatorIS1_EEE9__end_capB8ue170006Ev, symObjAddr: 0x3DD4, symBinAddr: 0x10000640C, symSize: 0x28 }
  - { offsetInCU: 0xD53F, offset: 0xD53F, size: 0x8, addend: 0x0, symName: __ZNKSt3__117__compressed_pairIP7StudentRNS_9allocatorIS1_EEE5firstB8ue170006Ev, symObjAddr: 0x3DFC, symBinAddr: 0x100006434, symSize: 0x24 }
  - { offsetInCU: 0xD606, offset: 0xD606, size: 0x8, addend: 0x0, symName: __ZNKSt3__113basic_istreamIcNS_11char_traitsIcEEE6sentrycvbB8ue170006Ev, symObjAddr: 0x3E20, symBinAddr: 0x100006458, symSize: 0x1C }
  - { offsetInCU: 0xD62A, offset: 0xD62A, size: 0x8, addend: 0x0, symName: __ZNSt3__112basic_stringIcNS_11char_traitsIcEENS_9allocatorIcEEE5clearB8ue170006Ev, symObjAddr: 0x3E3C, symBinAddr: 0x100006474, symSize: 0x78 }
  - { offsetInCU: 0xD651, offset: 0xD651, size: 0x8, addend: 0x0, symName: __ZNKSt3__18ios_base5widthB8ue170006Ev, symObjAddr: 0x3EB4, symBinAddr: 0x1000064EC, symSize: 0x18 }
  - { offsetInCU: 0xD678, offset: 0xD678, size: 0x8, addend: 0x0, symName: __ZNKSt3__112basic_stringIcNS_11char_traitsIcEENS_9allocatorIcEEE8max_sizeB8ue170006Ev, symObjAddr: 0x3ECC, symBinAddr: 0x100006504, symSize: 0xAC }
  - { offsetInCU: 0xD6C9, offset: 0xD6C9, size: 0x8, addend: 0x0, symName: __ZNKSt3__19basic_iosIcNS_11char_traitsIcEEE5rdbufB8ue170006Ev, symObjAddr: 0x3FA4, symBinAddr: 0x1000065DC, symSize: 0x24 }
  - { offsetInCU: 0xD6F0, offset: 0xD6F0, size: 0x8, addend: 0x0, symName: __ZNSt3__115basic_streambufIcNS_11char_traitsIcEEE5sgetcB8ue170006Ev, symObjAddr: 0x3FC8, symBinAddr: 0x100006600, symSize: 0x70 }
  - { offsetInCU: 0xD715, offset: 0xD715, size: 0x8, addend: 0x0, symName: __ZNSt3__111char_traitsIcE11eq_int_typeB8ue170006Eii, symObjAddr: 0x4038, symBinAddr: 0x100006670, symSize: 0x28 }
  - { offsetInCU: 0xD748, offset: 0xD748, size: 0x8, addend: 0x0, symName: __ZNSt3__111char_traitsIcE3eofB8ue170006Ev, symObjAddr: 0x4060, symBinAddr: 0x100006698, symSize: 0x8 }
  - { offsetInCU: 0xD75C, offset: 0xD75C, size: 0x8, addend: 0x0, symName: __ZNSt3__111char_traitsIcE12to_char_typeB8ue170006Ei, symObjAddr: 0x4068, symBinAddr: 0x1000066A0, symSize: 0x18 }
  - { offsetInCU: 0xD7AC, offset: 0xD7AC, size: 0x8, addend: 0x0, symName: __ZNKSt3__15ctypeIcE2isB8ue170006Ejc, symObjAddr: 0x4080, symBinAddr: 0x1000066B8, symSize: 0x7C }
  - { offsetInCU: 0xD7EF, offset: 0xD7EF, size: 0x8, addend: 0x0, symName: __ZNSt3__115basic_streambufIcNS_11char_traitsIcEEE6sbumpcB8ue170006Ev, symObjAddr: 0x40FC, symBinAddr: 0x100006734, symSize: 0x78 }
  - { offsetInCU: 0xD814, offset: 0xD814, size: 0x8, addend: 0x0, symName: __ZNSt3__18ios_base5widthB8ue170006El, symObjAddr: 0x4174, symBinAddr: 0x1000067AC, symSize: 0x2C }
  - { offsetInCU: 0xD859, offset: 0xD859, size: 0x8, addend: 0x0, symName: __ZNSt3__18ios_base18__setstate_nothrowB8ue170006Ej, symObjAddr: 0x41A0, symBinAddr: 0x1000067D8, symSize: 0x64 }
  - { offsetInCU: 0xD88D, offset: 0xD88D, size: 0x8, addend: 0x0, symName: __ZNKSt3__19basic_iosIcNS_11char_traitsIcEEE10exceptionsB8ue170006Ev, symObjAddr: 0x4204, symBinAddr: 0x10000683C, symSize: 0x24 }
  - { offsetInCU: 0xD8B2, offset: 0xD8B2, size: 0x8, addend: 0x0, symName: __ZNSt3__19basic_iosIcNS_11char_traitsIcEEE8setstateB8ue170006Ej, symObjAddr: 0x4228, symBinAddr: 0x100006860, symSize: 0x2C }
  - { offsetInCU: 0xD8E6, offset: 0xD8E6, size: 0x8, addend: 0x0, symName: __ZNSt3__111char_traitsIcE6assignB8ue170006ERcRKc, symObjAddr: 0x4254, symBinAddr: 0x10000688C, symSize: 0x24 }
  - { offsetInCU: 0xD917, offset: 0xD917, size: 0x8, addend: 0x0, symName: __ZNSt3__112basic_stringIcNS_11char_traitsIcEENS_9allocatorIcEEE18__get_long_pointerB8ue170006Ev, symObjAddr: 0x4278, symBinAddr: 0x1000068B0, symSize: 0x28 }
  - { offsetInCU: 0xD93C, offset: 0xD93C, size: 0x8, addend: 0x0, symName: __ZNSt3__112basic_stringIcNS_11char_traitsIcEENS_9allocatorIcEEE15__set_long_sizeB8ue170006Em, symObjAddr: 0x42A0, symBinAddr: 0x1000068D8, symSize: 0x38 }
  - { offsetInCU: 0xD970, offset: 0xD970, size: 0x8, addend: 0x0, symName: __ZNSt3__112basic_stringIcNS_11char_traitsIcEENS_9allocatorIcEEE19__get_short_pointerB8ue170006Ev, symObjAddr: 0x42D8, symBinAddr: 0x100006910, symSize: 0x28 }
  - { offsetInCU: 0xD995, offset: 0xD995, size: 0x8, addend: 0x0, symName: __ZNSt3__112basic_stringIcNS_11char_traitsIcEENS_9allocatorIcEEE16__set_short_sizeB8ue170006Em, symObjAddr: 0x4300, symBinAddr: 0x100006938, symSize: 0x78 }
  - { offsetInCU: 0xD9C9, offset: 0xD9C9, size: 0x8, addend: 0x0, symName: __ZNSt3__114pointer_traitsIPcE10pointer_toB8ue170006ERc, symObjAddr: 0x4378, symBinAddr: 0x1000069B0, symSize: 0x14 }
  - { offsetInCU: 0xD9F6, offset: 0xD9F6, size: 0x8, addend: 0x0, symName: __ZNSt3__116allocator_traitsINS_9allocatorIcEEE8max_sizeB8ue170006IS2_vEEmRKS2_, symObjAddr: 0x438C, symBinAddr: 0x1000069C4, symSize: 0x24 }
  - { offsetInCU: 0xDA24, offset: 0xDA24, size: 0x8, addend: 0x0, symName: __ZNKSt3__112basic_stringIcNS_11char_traitsIcEENS_9allocatorIcEEE7__allocB8ue170006Ev, symObjAddr: 0x43B0, symBinAddr: 0x1000069E8, symSize: 0x24 }
  - { offsetInCU: 0xDA49, offset: 0xDA49, size: 0x8, addend: 0x0, symName: __ZNSt3__114numeric_limitsImE3maxB8ue170006Ev, symObjAddr: 0x43D4, symBinAddr: 0x100006A0C, symSize: 0x14 }
  - { offsetInCU: 0xDA5D, offset: 0xDA5D, size: 0x8, addend: 0x0, symName: __ZNKSt3__19allocatorIcE8max_sizeB8ue170006Ev, symObjAddr: 0x43E8, symBinAddr: 0x100006A20, symSize: 0x14 }
  - { offsetInCU: 0xDA82, offset: 0xDA82, size: 0x8, addend: 0x0, symName: __ZNKSt3__117__compressed_pairINS_12basic_stringIcNS_11char_traitsIcEENS_9allocatorIcEEE5__repES5_E6secondB8ue170006Ev, symObjAddr: 0x43FC, symBinAddr: 0x100006A34, symSize: 0x24 }
  - { offsetInCU: 0xDAA7, offset: 0xDAA7, size: 0x8, addend: 0x0, symName: __ZNKSt3__122__compressed_pair_elemINS_9allocatorIcEELi1ELb1EE5__getB8ue170006Ev, symObjAddr: 0x4420, symBinAddr: 0x100006A58, symSize: 0x14 }
  - { offsetInCU: 0xDACC, offset: 0xDACC, size: 0x8, addend: 0x0, symName: __ZNSt3__123__libcpp_numeric_limitsImLb1EE3maxB8ue170006Ev, symObjAddr: 0x4434, symBinAddr: 0x100006A6C, symSize: 0x8 }
  - { offsetInCU: 0xDAE0, offset: 0xDAE0, size: 0x8, addend: 0x0, symName: __ZNKSt3__18ios_base5rdbufB8ue170006Ev, symObjAddr: 0x443C, symBinAddr: 0x100006A74, symSize: 0x18 }
  - { offsetInCU: 0xDB05, offset: 0xDB05, size: 0x8, addend: 0x0, symName: __ZNSt3__111char_traitsIcE11to_int_typeB8ue170006Ec, symObjAddr: 0x4454, symBinAddr: 0x100006A8C, symSize: 0x14 }
  - { offsetInCU: 0xDB28, offset: 0xDB28, size: 0x8, addend: 0x0, symName: __Z7isasciii, symObjAddr: 0x4468, symBinAddr: 0x100006AA0, symSize: 0x24 }
  - { offsetInCU: 0xDB55, offset: 0xDB55, size: 0x8, addend: 0x0, symName: __ZNKSt3__18ios_base10exceptionsB8ue170006Ev, symObjAddr: 0x448C, symBinAddr: 0x100006AC4, symSize: 0x18 }
  - { offsetInCU: 0xDB7B, offset: 0xDB7B, size: 0x8, addend: 0x0, symName: __ZNSt3__18ios_base8setstateB8ue170006Ej, symObjAddr: 0x44A4, symBinAddr: 0x100006ADC, symSize: 0x34 }
  - { offsetInCU: 0xDBB1, offset: 0xDBB1, size: 0x8, addend: 0x0, symName: __ZNSt3__16vectorI7StudentNS_9allocatorIS1_EEE22__construct_one_at_endB8ue170006IJRNS_12basic_stringIcNS_11char_traitsIcEENS2_IcEEEESB_RiSC_SC_EEEvDpOT_, symObjAddr: 0x44D8, symBinAddr: 0x100006B10, symSize: 0xB0 }
  - { offsetInCU: 0xDC4E, offset: 0xDC4E, size: 0x8, addend: 0x0, symName: __ZNSt3__16vectorI7StudentNS_9allocatorIS1_EEE24__emplace_back_slow_pathIJRNS_12basic_stringIcNS_11char_traitsIcEENS2_IcEEEESB_RiSC_SC_EEEvDpOT_, symObjAddr: 0x4588, symBinAddr: 0x100006BC0, symSize: 0xF8 }
  - { offsetInCU: 0xDCFD, offset: 0xDCFD, size: 0x8, addend: 0x0, symName: __ZNSt3__116allocator_traitsINS_9allocatorI7StudentEEE9constructB8ue170006IS2_JRNS_12basic_stringIcNS_11char_traitsIcEENS1_IcEEEESB_RiSC_SC_EvEEvRS3_PT_DpOT0_, symObjAddr: 0x4680, symBinAddr: 0x100006CB8, symSize: 0x54 }
  - { offsetInCU: 0xDDA4, offset: 0xDDA4, size: 0x8, addend: 0x0, symName: __ZNSt3__19allocatorI7StudentE9constructB8ue170006IS1_JRNS_12basic_stringIcNS_11char_traitsIcEENS0_IcEEEES9_RiSA_SA_EEEvPT_DpOT0_, symObjAddr: 0x46D4, symBinAddr: 0x100006D0C, symSize: 0x5C }
  - { offsetInCU: 0xDE45, offset: 0xDE45, size: 0x8, addend: 0x0, symName: __ZN7StudentC1ERKNSt3__112basic_stringIcNS0_11char_traitsIcEENS0_9allocatorIcEEEES8_iii, symObjAddr: 0x4730, symBinAddr: 0x100006D68, symSize: 0x54 }
  - { offsetInCU: 0xDEB4, offset: 0xDEB4, size: 0x8, addend: 0x0, symName: __ZN7StudentC2ERKNSt3__112basic_stringIcNS0_11char_traitsIcEENS0_9allocatorIcEEEES8_iii, symObjAddr: 0x4784, symBinAddr: 0x100006DBC, symSize: 0x94 }
  - { offsetInCU: 0xDF22, offset: 0xDF22, size: 0x8, addend: 0x0, symName: __ZNKSt3__16vectorI7StudentNS_9allocatorIS1_EEE11__recommendB8ue170006Em, symObjAddr: 0x4818, symBinAddr: 0x100006E50, symSize: 0xB4 }
  - { offsetInCU: 0xDF76, offset: 0xDF76, size: 0x8, addend: 0x0, symName: __ZNSt3__16vectorI7StudentNS_9allocatorIS1_EEE11__make_iterB8ue170006EPS1_, symObjAddr: 0x494C, symBinAddr: 0x100006F84, symSize: 0x30 }
  - { offsetInCU: 0xDFAA, offset: 0xDFAA, size: 0x8, addend: 0x0, symName: __ZNSt3__111__wrap_iterIP7StudentEC1B8ue170006ES2_, symObjAddr: 0x497C, symBinAddr: 0x100006FB4, symSize: 0x34 }
  - { offsetInCU: 0xDFE1, offset: 0xDFE1, size: 0x8, addend: 0x0, symName: __ZNSt3__111__wrap_iterIP7StudentEC2B8ue170006ES2_, symObjAddr: 0x49B0, symBinAddr: 0x100006FE8, symSize: 0x20 }
  - { offsetInCU: 0xE036, offset: 0xE036, size: 0x8, addend: 0x0, symName: __ZNKSt3__113basic_ostreamIcNS_11char_traitsIcEEE6sentrycvbB8ue170006Ev, symObjAddr: 0x4BBC, symBinAddr: 0x1000071F4, symSize: 0x1C }
  - { offsetInCU: 0xE05B, offset: 0xE05B, size: 0x8, addend: 0x0, symName: __ZNSt3__119ostreambuf_iteratorIcNS_11char_traitsIcEEEC1B8ue170006ERNS_13basic_ostreamIcS2_EE, symObjAddr: 0x4E18, symBinAddr: 0x100007450, symSize: 0x34 }
  - { offsetInCU: 0xE092, offset: 0xE092, size: 0x8, addend: 0x0, symName: __ZNKSt3__18ios_base5flagsB8ue170006Ev, symObjAddr: 0x4E4C, symBinAddr: 0x100007484, symSize: 0x18 }
  - { offsetInCU: 0xE0B8, offset: 0xE0B8, size: 0x8, addend: 0x0, symName: __ZNKSt3__19basic_iosIcNS_11char_traitsIcEEE4fillB8ue170006Ev, symObjAddr: 0x4E64, symBinAddr: 0x10000749C, symSize: 0x64 }
  - { offsetInCU: 0xE0DF, offset: 0xE0DF, size: 0x8, addend: 0x0, symName: __ZNKSt3__119ostreambuf_iteratorIcNS_11char_traitsIcEEE6failedB8ue170006Ev, symObjAddr: 0x4EC8, symBinAddr: 0x100007500, symSize: 0x24 }
  - { offsetInCU: 0xE104, offset: 0xE104, size: 0x8, addend: 0x0, symName: __ZNSt3__115basic_streambufIcNS_11char_traitsIcEEE5sputnB8ue170006EPKcl, symObjAddr: 0x4EEC, symBinAddr: 0x100007524, symSize: 0x3C }
  - { offsetInCU: 0xE145, offset: 0xE145, size: 0x8, addend: 0x0, symName: __ZNSt3__112basic_stringIcNS_11char_traitsIcEENS_9allocatorIcEEEC1B8ue170006Emc, symObjAddr: 0x4F28, symBinAddr: 0x100007560, symSize: 0x3C }
  - { offsetInCU: 0xE18C, offset: 0xE18C, size: 0x8, addend: 0x0, symName: __ZNSt3__112basic_stringIcNS_11char_traitsIcEENS_9allocatorIcEEEC2B8ue170006Emc, symObjAddr: 0x4F64, symBinAddr: 0x10000759C, symSize: 0x4C }
  - { offsetInCU: 0xE1D3, offset: 0xE1D3, size: 0x8, addend: 0x0, symName: __ZNSt3__119ostreambuf_iteratorIcNS_11char_traitsIcEEEC2B8ue170006ERNS_13basic_ostreamIcS2_EE, symObjAddr: 0x4FB0, symBinAddr: 0x1000075E8, symSize: 0x54 }
  - { offsetInCU: 0xE209, offset: 0xE209, size: 0x8, addend: 0x0, symName: __ZNKSt3__19basic_iosIcNS_11char_traitsIcEEE5widenB8ue170006Ec, symObjAddr: 0x5004, symBinAddr: 0x10000763C, symSize: 0x84 }
  - { offsetInCU: 0xE23F, offset: 0xE23F, size: 0x8, addend: 0x0, symName: __ZNKSt3__15ctypeIcE5widenB8ue170006Ec, symObjAddr: 0x5088, symBinAddr: 0x1000076C0, symSize: 0x38 }
...
